target datalayout = "e-m:e-p270:32:32-p271:32:32-p272:64:64-i64:64-i128:128-f80:128-n8:16:32:64-S128"
target triple = "x86_64-pc-linux-gnu"

%struct.X509_algor_st = type { ptr, ptr }
%struct.PBKDF2PARAM_st = type { ptr, ptr, ptr, ptr }
%struct.asn1_type_st = type { i32, %union.anon }
%union.anon = type { ptr }
%struct.asn1_string_st = type { i32, i32, ptr, i64 }

@.str.8 = private unnamed_addr constant [33 x i8] c"../openssl/crypto/evp/p5_crpt2.c\00", align 1
@__func__.PKCS5_v2_PBKDF2_keyivgen_ex = private unnamed_addr constant [28 x i8] c"PKCS5_v2_PBKDF2_keyivgen_ex\00", align 1
@.str.9 = private unnamed_addr constant [40 x i8] c"assertion failed: keylen <= sizeof(key)\00", align 1

; Function Attrs: nounwind uwtable
define i32 @PKCS5_v2_PBKDF2_keyivgen_ex(ptr noundef %0, ptr noundef %1, i32 noundef %2, ptr noundef %3, ptr noundef %4, ptr noundef %5, i32 noundef %6, ptr noundef %7, ptr noundef %8) #0 {
  %10 = alloca ptr, align 8
  %11 = alloca ptr, align 8
  %12 = alloca i32, align 4
  %13 = alloca ptr, align 8
  %14 = alloca ptr, align 8
  %15 = alloca ptr, align 8
  %16 = alloca i32, align 4
  %17 = alloca ptr, align 8
  %18 = alloca ptr, align 8
  %19 = alloca ptr, align 8
  %20 = alloca [64 x i8], align 16
  %21 = alloca i32, align 4
  %22 = alloca i32, align 4
  %23 = alloca i32, align 4
  %24 = alloca i32, align 4
  %25 = alloca i32, align 4
  %26 = alloca i32, align 4
  %27 = alloca i32, align 4
  %28 = alloca ptr, align 8
  %29 = alloca ptr, align 8
  %30 = alloca ptr, align 8
  store ptr %0, ptr %10, align 8, !tbaa !26
  store ptr %1, ptr %11, align 8, !tbaa !3
  store i32 %2, ptr %12, align 4, !tbaa !8
  store ptr %3, ptr %13, align 8, !tbaa !28
  store ptr %4, ptr %14, align 8, !tbaa !30
  store ptr %5, ptr %15, align 8, !tbaa !10
  store i32 %6, ptr %16, align 4, !tbaa !8
  store ptr %7, ptr %17, align 8, !tbaa !12
  store ptr %8, ptr %18, align 8, !tbaa !3
  call void @llvm.lifetime.start.p0(i64 8, ptr %19) #6
  call void @llvm.lifetime.start.p0(i64 64, ptr %20) #6
  call void @llvm.lifetime.start.p0(i64 4, ptr %21) #6
  call void @llvm.lifetime.start.p0(i64 4, ptr %22) #6
  call void @llvm.lifetime.start.p0(i64 4, ptr %23) #6
  call void @llvm.lifetime.start.p0(i64 4, ptr %24) #6
  store i32 0, ptr %24, align 4, !tbaa !8
  call void @llvm.lifetime.start.p0(i64 4, ptr %25) #6
  store i32 0, ptr %25, align 4, !tbaa !8
  call void @llvm.lifetime.start.p0(i64 4, ptr %26) #6
  call void @llvm.lifetime.start.p0(i64 4, ptr %27) #6
  call void @llvm.lifetime.start.p0(i64 8, ptr %28) #6
  store ptr null, ptr %28, align 8, !tbaa !42
  call void @llvm.lifetime.start.p0(i64 8, ptr %29) #6
  store ptr null, ptr %29, align 8, !tbaa !10
  call void @llvm.lifetime.start.p0(i64 8, ptr %30) #6
  store ptr null, ptr %30, align 8, !tbaa !10
  %31 = load ptr, ptr %10, align 8, !tbaa !26
  %32 = call ptr @EVP_CIPHER_CTX_get0_cipher(ptr noundef %31)
  %33 = icmp eq ptr %32, null
  br i1 %33, label %34, label %35

34:                                               ; preds = %9
  call void @ERR_new()
  call void @ERR_set_debug(ptr noundef @.str.8, i32 noundef 195, ptr noundef @__func__.PKCS5_v2_PBKDF2_keyivgen_ex)
  call void (i32, i32, ptr, ...) @ERR_set_error(i32 noundef 6, i32 noundef 131, ptr noundef null)
  br label %155

35:                                               ; preds = %9
  %36 = load ptr, ptr %10, align 8, !tbaa !26
  %37 = call i32 @EVP_CIPHER_CTX_get_key_length(ptr noundef %36)
  store i32 %37, ptr %25, align 4, !tbaa !8
  %38 = load i32, ptr %25, align 4, !tbaa !8
  %39 = zext i32 %38 to i64
  %40 = icmp ule i64 %39, 64
  br i1 %40, label %41, label %42

41:                                               ; preds = %35
  br label %44

42:                                               ; preds = %35
  call void @OPENSSL_die(ptr noundef @.str.9, ptr noundef @.str.8, i32 noundef 199) #8
  unreachable

43:                                               ; No predecessors!
  br label %44

44:                                               ; preds = %43, %41
  %45 = call ptr @PBKDF2PARAM_it()
  %46 = load ptr, ptr %13, align 8, !tbaa !28
  %47 = call ptr @ASN1_TYPE_unpack_sequence(ptr noundef %45, ptr noundef %46)
  store ptr %47, ptr %28, align 8, !tbaa !42
  %48 = load ptr, ptr %28, align 8, !tbaa !42
  %49 = icmp eq ptr %48, null
  br i1 %49, label %50, label %51

50:                                               ; preds = %44
  call void @ERR_new()
  call void @ERR_set_debug(ptr noundef @.str.8, i32 noundef 206, ptr noundef @__func__.PKCS5_v2_PBKDF2_keyivgen_ex)
  call void (i32, i32, ptr, ...) @ERR_set_error(i32 noundef 6, i32 noundef 114, ptr noundef null)
  br label %155

51:                                               ; preds = %44
  %52 = load ptr, ptr %10, align 8, !tbaa !26
  %53 = call i32 @EVP_CIPHER_CTX_get_key_length(ptr noundef %52)
  store i32 %53, ptr %23, align 4, !tbaa !8
  %54 = load i32, ptr %23, align 4, !tbaa !8
  %55 = icmp slt i32 %54, 0
  br i1 %55, label %56, label %57

56:                                               ; preds = %51
  call void @ERR_new()
  call void @ERR_set_debug(ptr noundef @.str.8, i32 noundef 212, ptr noundef @__func__.PKCS5_v2_PBKDF2_keyivgen_ex)
  call void (i32, i32, ptr, ...) @ERR_set_error(i32 noundef 6, i32 noundef 130, ptr noundef null)
  br label %155

57:                                               ; preds = %51
  %58 = load i32, ptr %23, align 4, !tbaa !8
  store i32 %58, ptr %25, align 4, !tbaa !8
  %59 = load ptr, ptr %28, align 8, !tbaa !42
  %60 = getelementptr inbounds nuw %struct.PBKDF2PARAM_st, ptr %59, i32 0, i32 2
  %61 = load ptr, ptr %60, align 8, !tbaa !44
  %62 = icmp ne ptr %61, null
  br i1 %62, label %63, label %72

63:                                               ; preds = %57
  %64 = load ptr, ptr %28, align 8, !tbaa !42
  %65 = getelementptr inbounds nuw %struct.PBKDF2PARAM_st, ptr %64, i32 0, i32 2
  %66 = load ptr, ptr %65, align 8, !tbaa !44
  %67 = call i64 @ASN1_INTEGER_get(ptr noundef %66)
  %68 = load i32, ptr %25, align 4, !tbaa !8
  %69 = sext i32 %68 to i64
  %70 = icmp ne i64 %67, %69
  br i1 %70, label %71, label %72

71:                                               ; preds = %63
  call void @ERR_new()
  call void @ERR_set_debug(ptr noundef @.str.8, i32 noundef 220, ptr noundef @__func__.PKCS5_v2_PBKDF2_keyivgen_ex)
  call void (i32, i32, ptr, ...) @ERR_set_error(i32 noundef 6, i32 noundef 123, ptr noundef null)
  br label %155

72:                                               ; preds = %63, %57
  %73 = load ptr, ptr %28, align 8, !tbaa !42
  %74 = getelementptr inbounds nuw %struct.PBKDF2PARAM_st, ptr %73, i32 0, i32 3
  %75 = load ptr, ptr %74, align 8, !tbaa !47
  %76 = icmp ne ptr %75, null
  br i1 %76, label %77, label %84

77:                                               ; preds = %72
  %78 = load ptr, ptr %28, align 8, !tbaa !42
  %79 = getelementptr inbounds nuw %struct.PBKDF2PARAM_st, ptr %78, i32 0, i32 3
  %80 = load ptr, ptr %79, align 8, !tbaa !47
  %81 = getelementptr inbounds nuw %struct.X509_algor_st, ptr %80, i32 0, i32 0
  %82 = load ptr, ptr %81, align 8, !tbaa !37
  %83 = call i32 @OBJ_obj2nid(ptr noundef %82)
  store i32 %83, ptr %26, align 4, !tbaa !8
  br label %85

84:                                               ; preds = %72
  store i32 163, ptr %26, align 4, !tbaa !8
  br label %85

85:                                               ; preds = %84, %77
  %86 = load i32, ptr %26, align 4, !tbaa !8
  %87 = call i32 @EVP_PBE_find(i32 noundef 1, i32 noundef %86, ptr noundef null, ptr noundef %27, ptr noundef null)
  %88 = icmp ne i32 %87, 0
  br i1 %88, label %90, label %89

89:                                               ; preds = %85
  call void @ERR_new()
  call void @ERR_set_debug(ptr noundef @.str.8, i32 noundef 230, ptr noundef @__func__.PKCS5_v2_PBKDF2_keyivgen_ex)
  call void (i32, i32, ptr, ...) @ERR_set_error(i32 noundef 6, i32 noundef 125, ptr noundef null)
  br label %155

90:                                               ; preds = %85
  %91 = call i32 @ERR_set_mark()
  %92 = load ptr, ptr %17, align 8, !tbaa !12
  %93 = load i32, ptr %27, align 4, !tbaa !8
  %94 = call ptr @OBJ_nid2sn(i32 noundef %93)
  %95 = load ptr, ptr %18, align 8, !tbaa !3
  %96 = call ptr @EVP_MD_fetch(ptr noundef %92, ptr noundef %94, ptr noundef %95)
  store ptr %96, ptr %30, align 8, !tbaa !10
  store ptr %96, ptr %29, align 8, !tbaa !10
  %97 = load ptr, ptr %29, align 8, !tbaa !10
  %98 = icmp eq ptr %97, null
  br i1 %98, label %99, label %103

99:                                               ; preds = %90
  %100 = load i32, ptr %27, align 4, !tbaa !8
  %101 = call ptr @OBJ_nid2sn(i32 noundef %100)
  %102 = call ptr @EVP_get_digestbyname(ptr noundef %101)
  store ptr %102, ptr %29, align 8, !tbaa !10
  br label %103

103:                                              ; preds = %99, %90
  %104 = load ptr, ptr %29, align 8, !tbaa !10
  %105 = icmp eq ptr %104, null
  br i1 %105, label %106, label %108

106:                                              ; preds = %103
  %107 = call i32 @ERR_clear_last_mark()
  call void @ERR_new()
  call void @ERR_set_debug(ptr noundef @.str.8, i32 noundef 240, ptr noundef @__func__.PKCS5_v2_PBKDF2_keyivgen_ex)
  call void (i32, i32, ptr, ...) @ERR_set_error(i32 noundef 6, i32 noundef 125, ptr noundef null)
  br label %155

108:                                              ; preds = %103
  %109 = call i32 @ERR_pop_to_mark()
  %110 = load ptr, ptr %28, align 8, !tbaa !42
  %111 = getelementptr inbounds nuw %struct.PBKDF2PARAM_st, ptr %110, i32 0, i32 0
  %112 = load ptr, ptr %111, align 8, !tbaa !48
  %113 = getelementptr inbounds nuw %struct.asn1_type_st, ptr %112, i32 0, i32 0
  %114 = load i32, ptr %113, align 8, !tbaa !49
  %115 = icmp ne i32 %114, 4
  br i1 %115, label %116, label %117

116:                                              ; preds = %108
  call void @ERR_new()
  call void @ERR_set_debug(ptr noundef @.str.8, i32 noundef 246, ptr noundef @__func__.PKCS5_v2_PBKDF2_keyivgen_ex)
  call void (i32, i32, ptr, ...) @ERR_set_error(i32 noundef 6, i32 noundef 126, ptr noundef null)
  br label %155

117:                                              ; preds = %108
  %118 = load ptr, ptr %28, align 8, !tbaa !42
  %119 = getelementptr inbounds nuw %struct.PBKDF2PARAM_st, ptr %118, i32 0, i32 0
  %120 = load ptr, ptr %119, align 8, !tbaa !48
  %121 = getelementptr inbounds nuw %struct.asn1_type_st, ptr %120, i32 0, i32 1
  %122 = load ptr, ptr %121, align 8, !tbaa !51
  %123 = getelementptr inbounds nuw %struct.asn1_string_st, ptr %122, i32 0, i32 2
  %124 = load ptr, ptr %123, align 8, !tbaa !52
  store ptr %124, ptr %19, align 8, !tbaa !3
  %125 = load ptr, ptr %28, align 8, !tbaa !42
  %126 = getelementptr inbounds nuw %struct.PBKDF2PARAM_st, ptr %125, i32 0, i32 0
  %127 = load ptr, ptr %126, align 8, !tbaa !48
  %128 = getelementptr inbounds nuw %struct.asn1_type_st, ptr %127, i32 0, i32 1
  %129 = load ptr, ptr %128, align 8, !tbaa !51
  %130 = getelementptr inbounds nuw %struct.asn1_string_st, ptr %129, i32 0, i32 0
  %131 = load i32, ptr %130, align 8, !tbaa !54
  store i32 %131, ptr %21, align 4, !tbaa !8
  %132 = load ptr, ptr %28, align 8, !tbaa !42
  %133 = getelementptr inbounds nuw %struct.PBKDF2PARAM_st, ptr %132, i32 0, i32 1
  %134 = load ptr, ptr %133, align 8, !tbaa !55
  %135 = call i64 @ASN1_INTEGER_get(ptr noundef %134)
  %136 = trunc i64 %135 to i32
  store i32 %136, ptr %22, align 4, !tbaa !8
  %137 = load ptr, ptr %11, align 8, !tbaa !3
  %138 = load i32, ptr %12, align 4, !tbaa !8
  %139 = load ptr, ptr %19, align 8, !tbaa !3
  %140 = load i32, ptr %21, align 4, !tbaa !8
  %141 = load i32, ptr %22, align 4, !tbaa !8
  %142 = load ptr, ptr %29, align 8, !tbaa !10
  %143 = load i32, ptr %25, align 4, !tbaa !8
  %144 = getelementptr inbounds [64 x i8], ptr %20, i64 0, i64 0
  %145 = load ptr, ptr %17, align 8, !tbaa !12
  %146 = load ptr, ptr %18, align 8, !tbaa !3
  %147 = call i32 @ossl_pkcs5_pbkdf2_hmac_ex(ptr noundef %137, i32 noundef %138, ptr noundef %139, i32 noundef %140, i32 noundef %141, ptr noundef %142, i32 noundef %143, ptr noundef %144, ptr noundef %145, ptr noundef %146)
  %148 = icmp ne i32 %147, 0
  br i1 %148, label %150, label %149

149:                                              ; preds = %117
  br label %155

150:                                              ; preds = %117
  %151 = load ptr, ptr %10, align 8, !tbaa !26
  %152 = getelementptr inbounds [64 x i8], ptr %20, i64 0, i64 0
  %153 = load i32, ptr %16, align 4, !tbaa !8
  %154 = call i32 @EVP_CipherInit_ex(ptr noundef %151, ptr noundef null, ptr noundef null, ptr noundef %152, ptr noundef null, i32 noundef %153)
  store i32 %154, ptr %24, align 4, !tbaa !8
  br label %155

155:                                              ; preds = %150, %149, %116, %106, %89, %71, %56, %50, %34
  %156 = getelementptr inbounds [64 x i8], ptr %20, i64 0, i64 0
  %157 = load i32, ptr %25, align 4, !tbaa !8
  %158 = zext i32 %157 to i64
  call void @OPENSSL_cleanse(ptr noundef %156, i64 noundef %158)
  %159 = load ptr, ptr %28, align 8, !tbaa !42
  call void @PBKDF2PARAM_free(ptr noundef %159)
  %160 = load ptr, ptr %30, align 8, !tbaa !10
  call void @EVP_MD_free(ptr noundef %160)
  %161 = load i32, ptr %24, align 4, !tbaa !8
  call void @llvm.lifetime.end.p0(i64 8, ptr %30) #6
  call void @llvm.lifetime.end.p0(i64 8, ptr %29) #6
  call void @llvm.lifetime.end.p0(i64 8, ptr %28) #6
  call void @llvm.lifetime.end.p0(i64 4, ptr %27) #6
  call void @llvm.lifetime.end.p0(i64 4, ptr %26) #6
  call void @llvm.lifetime.end.p0(i64 4, ptr %25) #6
  call void @llvm.lifetime.end.p0(i64 4, ptr %24) #6
  call void @llvm.lifetime.end.p0(i64 4, ptr %23) #6
  call void @llvm.lifetime.end.p0(i64 4, ptr %22) #6
  call void @llvm.lifetime.end.p0(i64 4, ptr %21) #6
  call void @llvm.lifetime.end.p0(i64 64, ptr %20) #6
  call void @llvm.lifetime.end.p0(i64 8, ptr %19) #6
  ret i32 %161
}