; Function Attrs: nounwind uwtable
define i32 @PKCS5_v2_PBKDF2_keyivgen_ex(ptr noundef %0, ptr noundef %1, i32 noundef %2, ptr noundef %3, ptr readnone captures(none) %4, ptr readnone captures(none) %5, i32 noundef %6, ptr noundef %7, ptr noundef %8) local_unnamed_addr #0 {
  %10 = alloca [64 x i8], align 16
  %11 = alloca i32, align 4
  call void @llvm.lifetime.start.p0(i64 64, ptr nonnull %10) #6
  call void @llvm.lifetime.start.p0(i64 4, ptr nonnull %11) #6
  %12 = tail call ptr @EVP_CIPHER_CTX_get0_cipher(ptr noundef %0) #6
  %13 = icmp eq ptr %12, null
  br i1 %13, label %14, label %15

14:                                               ; preds = %9
  tail call void @ERR_new() #6
  tail call void @ERR_set_debug(ptr noundef nonnull @.str.8, i32 noundef 195, ptr noundef nonnull @__func__.PKCS5_v2_PBKDF2_keyivgen_ex) #6
  tail call void (i32, i32, ptr, ...) @ERR_set_error(i32 noundef 6, i32 noundef 131, ptr noundef null) #6
  br label %74

15:                                               ; preds = %9
  %16 = tail call i32 @EVP_CIPHER_CTX_get_key_length(ptr noundef %0) #6
  %17 = icmp ult i32 %16, 65
  br i1 %17, label %19, label %18

18:                                               ; preds = %15
  tail call void @OPENSSL_die(ptr noundef nonnull @.str.9, ptr noundef nonnull @.str.8, i32 noundef 199) #8
  unreachable

19:                                               ; preds = %15
  %20 = tail call ptr @PBKDF2PARAM_it() #6
  %21 = tail call ptr @ASN1_TYPE_unpack_sequence(ptr noundef %20, ptr noundef %3) #6
  %22 = icmp eq ptr %21, null
  br i1 %22, label %23, label %24

23:                                               ; preds = %19
  tail call void @ERR_new() #6
  tail call void @ERR_set_debug(ptr noundef nonnull @.str.8, i32 noundef 206, ptr noundef nonnull @__func__.PKCS5_v2_PBKDF2_keyivgen_ex) #6
  tail call void (i32, i32, ptr, ...) @ERR_set_error(i32 noundef 6, i32 noundef 114, ptr noundef null) #6
  br label %74

24:                                               ; preds = %19
  %25 = tail call i32 @EVP_CIPHER_CTX_get_key_length(ptr noundef %0) #6
  %26 = icmp slt i32 %25, 0
  br i1 %26, label %27, label %28

27:                                               ; preds = %24
  tail call void @ERR_new() #6
  tail call void @ERR_set_debug(ptr noundef nonnull @.str.8, i32 noundef 212, ptr noundef nonnull @__func__.PKCS5_v2_PBKDF2_keyivgen_ex) #6
  tail call void (i32, i32, ptr, ...) @ERR_set_error(i32 noundef 6, i32 noundef 130, ptr noundef null) #6
  br label %74

28:                                               ; preds = %24
  %29 = getelementptr inbounds nuw i8, ptr %21, i64 16
  %30 = load ptr, ptr %29, align 8, !tbaa !23
  %.not = icmp eq ptr %30, null
  br i1 %.not, label %35, label %31

31:                                               ; preds = %28
  %32 = tail call i64 @ASN1_INTEGER_get(ptr noundef nonnull %30) #6
  %33 = zext nneg i32 %25 to i64
  %.not46 = icmp eq i64 %32, %33
  br i1 %.not46, label %35, label %34

34:                                               ; preds = %31
  tail call void @ERR_new() #6
  tail call void @ERR_set_debug(ptr noundef nonnull @.str.8, i32 noundef 220, ptr noundef nonnull @__func__.PKCS5_v2_PBKDF2_keyivgen_ex) #6
  tail call void (i32, i32, ptr, ...) @ERR_set_error(i32 noundef 6, i32 noundef 123, ptr noundef null) #6
  br label %74

35:                                               ; preds = %31, %28
  %36 = getelementptr inbounds nuw i8, ptr %21, i64 24
  %37 = load ptr, ptr %36, align 8, !tbaa !26
  %.not47 = icmp eq ptr %37, null
  br i1 %.not47, label %41, label %38

38:                                               ; preds = %35
  %39 = load ptr, ptr %37, align 8, !tbaa !17
  %40 = tail call i32 @OBJ_obj2nid(ptr noundef %39) #6
  br label %41

41:                                               ; preds = %35, %38
  %.038 = phi i32 [ %40, %38 ], [ 163, %35 ]
  %42 = call i32 @EVP_PBE_find(i32 noundef 1, i32 noundef %.038, ptr noundef null, ptr noundef nonnull %11, ptr noundef null) #6
  %.not48 = icmp eq i32 %42, 0
  br i1 %.not48, label %43, label %44

43:                                               ; preds = %41
  call void @ERR_new() #6
  call void @ERR_set_debug(ptr noundef nonnull @.str.8, i32 noundef 230, ptr noundef nonnull @__func__.PKCS5_v2_PBKDF2_keyivgen_ex) #6
  call void (i32, i32, ptr, ...) @ERR_set_error(i32 noundef 6, i32 noundef 125, ptr noundef null) #6
  br label %74

44:                                               ; preds = %41
  %45 = call i32 @ERR_set_mark() #6
  %46 = load i32, ptr %11, align 4, !tbaa !3
  %47 = call ptr @OBJ_nid2sn(i32 noundef %46) #6
  %48 = call ptr @EVP_MD_fetch(ptr noundef %7, ptr noundef %47, ptr noundef %8) #6
  %49 = icmp eq ptr %48, null
  br i1 %49, label %50, label %.thread

50:                                               ; preds = %44
  %51 = load i32, ptr %11, align 4, !tbaa !3
  %52 = call ptr @OBJ_nid2sn(i32 noundef %51) #6
  %53 = call ptr @EVP_get_digestbyname(ptr noundef %52) #6
  %54 = icmp eq ptr %53, null
  br i1 %54, label %55, label %.thread

55:                                               ; preds = %50
  %56 = call i32 @ERR_clear_last_mark() #6
  call void @ERR_new() #6
  call void @ERR_set_debug(ptr noundef nonnull @.str.8, i32 noundef 240, ptr noundef nonnull @__func__.PKCS5_v2_PBKDF2_keyivgen_ex) #6
  call void (i32, i32, ptr, ...) @ERR_set_error(i32 noundef 6, i32 noundef 125, ptr noundef null) #6
  br label %74

.thread:                                          ; preds = %44, %50
  %.03652 = phi ptr [ %53, %50 ], [ %48, %44 ]
  %57 = call i32 @ERR_pop_to_mark() #6
  %58 = load ptr, ptr %21, align 8, !tbaa !27
  %59 = load i32, ptr %58, align 8, !tbaa !28
  %.not49 = icmp eq i32 %59, 4
  br i1 %.not49, label %61, label %60

60:                                               ; preds = %.thread
  call void @ERR_new() #6
  call void @ERR_set_debug(ptr noundef nonnull @.str.8, i32 noundef 246, ptr noundef nonnull @__func__.PKCS5_v2_PBKDF2_keyivgen_ex) #6
  call void (i32, i32, ptr, ...) @ERR_set_error(i32 noundef 6, i32 noundef 126, ptr noundef null) #6
  br label %74

61:                                               ; preds = %.thread
  %62 = getelementptr inbounds nuw i8, ptr %58, i64 8
  %63 = load ptr, ptr %62, align 8, !tbaa !30
  %64 = getelementptr inbounds nuw i8, ptr %63, i64 8
  %65 = load ptr, ptr %64, align 8, !tbaa !31
  %66 = load i32, ptr %63, align 8, !tbaa !33
  %67 = getelementptr inbounds nuw i8, ptr %21, i64 8
  %68 = load ptr, ptr %67, align 8, !tbaa !34
  %69 = call i64 @ASN1_INTEGER_get(ptr noundef %68) #6
  %70 = trunc i64 %69 to i32
  %71 = call i32 @ossl_pkcs5_pbkdf2_hmac_ex(ptr noundef %1, i32 noundef %2, ptr noundef %65, i32 noundef %66, i32 noundef %70, ptr noundef nonnull %.03652, i32 noundef %25, ptr noundef nonnull %10, ptr noundef %7, ptr noundef %8)
  %.not50 = icmp eq i32 %71, 0
  br i1 %.not50, label %74, label %72

72:                                               ; preds = %61
  %73 = call i32 @EVP_CipherInit_ex(ptr noundef %0, ptr noundef null, ptr noundef null, ptr noundef nonnull %10, ptr noundef null, i32 noundef %6) #6
  br label %74

74:                                               ; preds = %61, %72, %60, %55, %43, %34, %27, %23, %14
  %.040 = phi i32 [ 0, %14 ], [ 0, %23 ], [ 0, %27 ], [ 0, %34 ], [ 0, %55 ], [ 0, %60 ], [ %73, %72 ], [ 0, %61 ], [ 0, %43 ]
  %.039 = phi i32 [ 0, %14 ], [ %16, %23 ], [ %16, %27 ], [ %25, %34 ], [ %25, %55 ], [ %25, %60 ], [ %25, %72 ], [ %25, %61 ], [ %25, %43 ]
  %.037 = phi ptr [ null, %14 ], [ null, %23 ], [ %21, %27 ], [ %21, %34 ], [ %21, %55 ], [ %21, %60 ], [ %21, %72 ], [ %21, %61 ], [ %21, %43 ]
  %.0 = phi ptr [ null, %14 ], [ null, %23 ], [ null, %27 ], [ null, %34 ], [ null, %55 ], [ %48, %60 ], [ %48, %72 ], [ %48, %61 ], [ null, %43 ]
  %75 = zext nneg i32 %.039 to i64
  call void @OPENSSL_cleanse(ptr noundef nonnull %10, i64 noundef %75) #6
  call void @PBKDF2PARAM_free(ptr noundef %.037) #6
  call void @EVP_MD_free(ptr noundef %.0) #6
  call void @llvm.lifetime.end.p0(i64 4, ptr nonnull %11) #6
  call void @llvm.lifetime.end.p0(i64 64, ptr nonnull %10) #6
  ret i32 %.040
}